target datalayout = "e-m:e-p270:32:32-p271:32:32-p272:64:64-i64:64-i128:128-f80:128-n8:16:32:64-S128"
target triple = "x86_64-pc-linux-gnu"

%"class.llvm::ArrayRef" = type { ptr, i64 }

; Function Attrs: mustprogress nounwind uwtable
define linkonce_odr hidden noundef ptr @_ZNK4llvm8ArrayRefINS_26AArch64GenRegisterBankInfo17PartialMappingIdxEE3endEv(ptr noundef nonnull align 8 dereferenceable(16) %0) #0 comdat align 2 {
  %2 = alloca ptr, align 8
  store ptr %0, ptr %2, align 8
  %3 = load ptr, ptr %2, align 8
  %4 = getelementptr inbounds nuw %"class.llvm::ArrayRef", ptr %3, i32 0, i32 0
  %5 = load ptr, ptr %4, align 8
  %6 = getelementptr inbounds nuw %"class.llvm::ArrayRef", ptr %3, i32 0, i32 1
  %7 = load i64, ptr %6, align 8
  %8 = getelementptr inbounds i32, ptr %5, i64 %7
  ret ptr %8
}

; Function Attrs: mustprogress nounwind uwtable
define linkonce_odr hidden noundef ptr @_ZNK4llvm8ArrayRefINS_26AArch64GenRegisterBankInfo17PartialMappingIdxEE5beginEv(ptr noundef nonnull align 8 dereferenceable(16) %0) #0 comdat align 2 {
  %2 = alloca ptr, align 8
  store ptr %0, ptr %2, align 8
  %3 = load ptr, ptr %2, align 8
  %4 = getelementptr inbounds nuw %"class.llvm::ArrayRef", ptr %3, i32 0, i32 0
  %5 = load ptr, ptr %4, align 8
  ret ptr %5
}

; Function Attrs: mustprogress nounwind uwtable
define linkonce_odr hidden noundef nonnull align 4 dereferenceable(4) ptr @_ZNK4llvm8ArrayRefINS_26AArch64GenRegisterBankInfo17PartialMappingIdxEE4backEv(ptr noundef nonnull align 8 dereferenceable(16) %0) #0 comdat align 2 {
  %2 = alloca ptr, align 8
  store ptr %0, ptr %2, align 8
  %3 = load ptr, ptr %2, align 8
  %4 = getelementptr inbounds nuw %"class.llvm::ArrayRef", ptr %3, i32 0, i32 0
  %5 = load ptr, ptr %4, align 8
  %6 = getelementptr inbounds nuw %"class.llvm::ArrayRef", ptr %3, i32 0, i32 1
  %7 = load i64, ptr %6, align 8
  %8 = sub i64 %7, 1
  %9 = getelementptr inbounds i32, ptr %5, i64 %8
  ret ptr %9
}

; Function Attrs: mustprogress nounwind uwtable
define linkonce_odr hidden noundef nonnull align 4 dereferenceable(4) ptr @_ZNK4llvm8ArrayRefINS_26AArch64GenRegisterBankInfo17PartialMappingIdxEE5frontEv(ptr noundef nonnull align 8 dereferenceable(16) %0) #0 comdat align 2 {
  %2 = alloca ptr, align 8
  store ptr %0, ptr %2, align 8
  %3 = load ptr, ptr %2, align 8
  %4 = getelementptr inbounds nuw %"class.llvm::ArrayRef", ptr %3, i32 0, i32 0
  %5 = load ptr, ptr %4, align 8
  %6 = getelementptr inbounds i32, ptr %5, i64 0
  ret ptr %6
}

; Function Attrs: mustprogress nounwind uwtable
define dso_local noundef zeroext i1 @_ZN4llvm26AArch64GenRegisterBankInfo22checkPartialMappingIdxENS0_17PartialMappingIdxES1_NS_8ArrayRefIS1_EE(i32 noundef %0, i32 noundef %1, ptr %2, i64 %3) #0 align 2 {
  %5 = alloca i1, align 1
  %6 = alloca %"class.llvm::ArrayRef", align 8
  %7 = alloca i32, align 4
  %8 = alloca i32, align 4
  %9 = alloca i32, align 4
  %10 = alloca i8, align 1
  %11 = alloca ptr, align 8
  %12 = alloca ptr, align 8
  %13 = alloca ptr, align 8
  %14 = alloca ptr, align 8
  %15 = getelementptr inbounds nuw { ptr, i64 }, ptr %6, i32 0, i32 0
  store ptr %2, ptr %15, align 8
  %16 = getelementptr inbounds nuw { ptr, i64 }, ptr %6, i32 0, i32 1
  store i64 %3, ptr %16, align 8
  store i32 %0, ptr %7, align 4
  store i32 %1, ptr %8, align 4
  %17 = call noundef nonnull align 4 dereferenceable(4) ptr @_ZNK4llvm8ArrayRefINS_26AArch64GenRegisterBankInfo17PartialMappingIdxEE5frontEv(ptr noundef nonnull align 8 dereferenceable(16) %6)
  %18 = load i32, ptr %17, align 4
  %19 = load i32, ptr %7, align 4
  %20 = icmp ne i32 %18, %19
  br i1 %20, label %21, label %22

21:                                               ; preds = %4
  store i1 false, ptr %5, align 1
  br label %65

22:                                               ; preds = %4
  %23 = call noundef nonnull align 4 dereferenceable(4) ptr @_ZNK4llvm8ArrayRefINS_26AArch64GenRegisterBankInfo17PartialMappingIdxEE4backEv(ptr noundef nonnull align 8 dereferenceable(16) %6)
  %24 = load i32, ptr %23, align 4
  %25 = load i32, ptr %8, align 4
  %26 = icmp ne i32 %24, %25
  br i1 %26, label %27, label %28

27:                                               ; preds = %22
  store i1 false, ptr %5, align 1
  br label %65

28:                                               ; preds = %22
  %29 = call noundef nonnull align 4 dereferenceable(4) ptr @_ZNK4llvm8ArrayRefINS_26AArch64GenRegisterBankInfo17PartialMappingIdxEE5frontEv(ptr noundef nonnull align 8 dereferenceable(16) %6)
  %30 = load i32, ptr %29, align 4
  %31 = call noundef nonnull align 4 dereferenceable(4) ptr @_ZNK4llvm8ArrayRefINS_26AArch64GenRegisterBankInfo17PartialMappingIdxEE4backEv(ptr noundef nonnull align 8 dereferenceable(16) %6)
  %32 = load i32, ptr %31, align 4
  %33 = icmp sgt i32 %30, %32
  br i1 %33, label %34, label %35

34:                                               ; preds = %28
  store i1 false, ptr %5, align 1
  br label %65

35:                                               ; preds = %28
  %36 = call noundef nonnull align 4 dereferenceable(4) ptr @_ZNK4llvm8ArrayRefINS_26AArch64GenRegisterBankInfo17PartialMappingIdxEE5frontEv(ptr noundef nonnull align 8 dereferenceable(16) %6)
  %37 = load i32, ptr %36, align 4
  store i32 %37, ptr %9, align 4
  store i8 1, ptr %10, align 1
  store ptr %6, ptr %11, align 8
  %38 = load ptr, ptr %11, align 8
  %39 = call noundef ptr @_ZNK4llvm8ArrayRefINS_26AArch64GenRegisterBankInfo17PartialMappingIdxEE5beginEv(ptr noundef nonnull align 8 dereferenceable(16) %38)
  store ptr %39, ptr %12, align 8
  %40 = load ptr, ptr %11, align 8
  %41 = call noundef ptr @_ZNK4llvm8ArrayRefINS_26AArch64GenRegisterBankInfo17PartialMappingIdxEE3endEv(ptr noundef nonnull align 8 dereferenceable(16) %40)
  store ptr %41, ptr %13, align 8
  br label %42

42:                                               ; preds = %61, %35
  %43 = load ptr, ptr %12, align 8
  %44 = load ptr, ptr %13, align 8
  %45 = icmp ne ptr %43, %44
  br i1 %45, label %46, label %64

46:                                               ; preds = %42
  %47 = load ptr, ptr %12, align 8
  store ptr %47, ptr %14, align 8
  %48 = load i8, ptr %10, align 1
  %49 = trunc i8 %48 to i1
  br i1 %49, label %50, label %51

50:                                               ; preds = %46
  store i8 0, ptr %10, align 1
  br label %61

51:                                               ; preds = %46
  %52 = load i32, ptr %9, align 4
  %53 = add nsw i32 %52, 1
  %54 = load ptr, ptr %14, align 8
  %55 = load i32, ptr %54, align 4
  %56 = icmp ne i32 %53, %55
  br i1 %56, label %57, label %58

57:                                               ; preds = %51
  store i1 false, ptr %5, align 1
  br label %65

58:                                               ; preds = %51
  %59 = load ptr, ptr %14, align 8
  %60 = load i32, ptr %59, align 4
  store i32 %60, ptr %9, align 4
  br label %61

61:                                               ; preds = %58, %50
  %62 = load ptr, ptr %12, align 8
  %63 = getelementptr inbounds i32, ptr %62, i32 1
  store ptr %63, ptr %12, align 8
  br label %42

64:                                               ; preds = %42
  store i1 true, ptr %5, align 1
  br label %65

65:                                               ; preds = %64, %57, %34, %27, %21
  %66 = load i1, ptr %5, align 1
  ret i1 %66
}