; Function Attrs: mustprogress nofree norecurse nosync nounwind willreturn memory(argmem: read) uwtable
define dso_local noundef zeroext i1 @_ZN4llvm26AArch64GenRegisterBankInfo22checkPartialMappingIdxENS0_17PartialMappingIdxES1_NS_8ArrayRefIS1_EE(i32 noundef %0, i32 noundef %1, ptr readonly %2, i64 %3) local_unnamed_addr #5 align 2 {
  %5 = load i32, ptr %2, align 4
  %.not = icmp eq i32 %5, %0
  br i1 %.not, label %6, label %.loopexit

6:                                                ; preds = %4
  %7 = getelementptr i32, ptr %2, i64 %3
  %8 = getelementptr i8, ptr %7, i64 -4
  %9 = load i32, ptr %8, align 4
  %.not17 = icmp ne i32 %9, %1
  %10 = icmp sgt i32 %0, %9
  %or.cond = or i1 %.not17, %10
  br i1 %or.cond, label %.loopexit, label %.preheader

.preheader:                                       ; preds = %6
  %.idx.mask = and i64 %3, 4611686018427387903
  %.not1828 = icmp eq i64 %.idx.mask, 0
  br i1 %.not1828, label %.loopexit, label %.lr.ph

.lr.ph:                                           ; preds = %.preheader, %14
  %.01231 = phi i32 [ %.1, %14 ], [ %0, %.preheader ]
  %.01330 = phi ptr [ %15, %14 ], [ %2, %.preheader ]
  %.01429 = phi i1 [ false, %14 ], [ true, %.preheader ]
  br i1 %.01429, label %14, label %11

11:                                               ; preds = %.lr.ph
  %12 = add nsw i32 %.01231, 1
  %13 = load i32, ptr %.01330, align 4
  %.not19 = icmp eq i32 %12, %13
  br i1 %.not19, label %14, label %.loopexit

14:                                               ; preds = %11, %.lr.ph
  %.1 = phi i32 [ %.01231, %.lr.ph ], [ %12, %11 ]
  %15 = getelementptr inbounds i8, ptr %.01330, i64 4
  %.not18 = icmp eq ptr %15, %7
  br i1 %.not18, label %.loopexit, label %.lr.ph

.loopexit:                                        ; preds = %11, %14, %.preheader, %6, %4
  %.0 = phi i1 [ false, %4 ], [ false, %6 ], [ true, %.preheader ], [ false, %11 ], [ true, %14 ]
  ret i1 %.0
}